target datalayout = "e-m:e-p270:32:32-p271:32:32-p272:64:64-i64:64-i128:128-f80:128-n8:16:32:64-S128"
target triple = "x86_64-pc-linux-gnu"

%struct.DdManager = type { %struct.DdNode, ptr, ptr, ptr, ptr, ptr, ptr, ptr, i32, i32, double, double, double, i32, i32, i32, i32, i32, i32, ptr, ptr, %struct.DdSubtable, i32, i32, i32, i32, i32, i32, i32, double, i32, i32, i32, ptr, i64, double, i32, ptr, ptr, ptr, ptr, ptr, ptr, ptr, i32, ptr, ptr, ptr, ptr, ptr, ptr, i32, i32, i32, double, i32, i32, i32, i32, double, double, i32, i32, i32, i32, i32, i32, i32, i32, i32, ptr, ptr, i32, i32, i32, i32, i32, i32, ptr, ptr, ptr, ptr, ptr, ptr, ptr, ptr, i32, i64, i64, i64, i32, i64, i64, double, double, double, double, double, double, i32, ptr, ptr, i64 }
%struct.DdNode = type { i32, i32, ptr, %union.anon, i64 }
%union.anon = type { %struct.DdChildren }
%struct.DdChildren = type { ptr, ptr }
%struct.DdSubtable = type { ptr, i32, i32, i32, i32, i32, i32, i32, i32, i32, i32, i32 }

; Function Attrs: nounwind uwtable
define i32 @Cudd_SupportSize(ptr noundef %0, ptr noundef %1) #0 {
  %3 = alloca i32, align 4
  %4 = alloca ptr, align 8
  %5 = alloca ptr, align 8
  %6 = alloca ptr, align 8
  %7 = alloca i32, align 4
  %8 = alloca i32, align 4
  %9 = alloca i32, align 4
  store ptr %0, ptr %4, align 8
  store ptr %1, ptr %5, align 8
  %10 = load ptr, ptr %4, align 8
  %11 = getelementptr inbounds %struct.DdManager, ptr %10, i32 0, i32 16
  %12 = load i32, ptr %11, align 4
  %13 = load ptr, ptr %4, align 8
  %14 = getelementptr inbounds %struct.DdManager, ptr %13, i32 0, i32 15
  %15 = load i32, ptr %14, align 8
  %16 = icmp sgt i32 %12, %15
  br i1 %16, label %17, label %21

17:                                               ; preds = %2
  %18 = load ptr, ptr %4, align 8
  %19 = getelementptr inbounds %struct.DdManager, ptr %18, i32 0, i32 16
  %20 = load i32, ptr %19, align 4
  br label %25

21:                                               ; preds = %2
  %22 = load ptr, ptr %4, align 8
  %23 = getelementptr inbounds %struct.DdManager, ptr %22, i32 0, i32 15
  %24 = load i32, ptr %23, align 8
  br label %25

25:                                               ; preds = %21, %17
  %26 = phi i32 [ %20, %17 ], [ %24, %21 ]
  store i32 %26, ptr %8, align 4
  %27 = load i32, ptr %8, align 4
  %28 = sext i32 %27 to i64
  %29 = mul i64 4, %28
  %30 = call noalias ptr @malloc(i64 noundef %29) #5
  store ptr %30, ptr %6, align 8
  %31 = load ptr, ptr %6, align 8
  %32 = icmp eq ptr %31, null
  br i1 %32, label %33, label %36

33:                                               ; preds = %25
  %34 = load ptr, ptr %4, align 8
  %35 = getelementptr inbounds %struct.DdManager, ptr %34, i32 0, i32 86
  store i32 1, ptr %35, align 8
  store i32 -1, ptr %3, align 4
  br label %85

36:                                               ; preds = %25
  store i32 0, ptr %7, align 4
  br label %37

37:                                               ; preds = %46, %36
  %38 = load i32, ptr %7, align 4
  %39 = load i32, ptr %8, align 4
  %40 = icmp slt i32 %38, %39
  br i1 %40, label %41, label %49

41:                                               ; preds = %37
  %42 = load ptr, ptr %6, align 8
  %43 = load i32, ptr %7, align 4
  %44 = sext i32 %43 to i64
  %45 = getelementptr inbounds i32, ptr %42, i64 %44
  store i32 0, ptr %45, align 4
  br label %46

46:                                               ; preds = %41
  %47 = load i32, ptr %7, align 4
  %48 = add nsw i32 %47, 1
  store i32 %48, ptr %7, align 4
  br label %37, !llvm.loop !17

49:                                               ; preds = %37
  %50 = load ptr, ptr %5, align 8
  %51 = ptrtoint ptr %50 to i64
  %52 = and i64 %51, -2
  %53 = inttoptr i64 %52 to ptr
  %54 = load ptr, ptr %6, align 8
  call void @ddSupportStep(ptr noundef %53, ptr noundef %54)
  %55 = load ptr, ptr %5, align 8
  %56 = ptrtoint ptr %55 to i64
  %57 = and i64 %56, -2
  %58 = inttoptr i64 %57 to ptr
  call void @ddClearFlag(ptr noundef %58)
  store i32 0, ptr %9, align 4
  store i32 0, ptr %7, align 4
  br label %59

59:                                               ; preds = %74, %49
  %60 = load i32, ptr %7, align 4
  %61 = load i32, ptr %8, align 4
  %62 = icmp slt i32 %60, %61
  br i1 %62, label %63, label %77

63:                                               ; preds = %59
  %64 = load ptr, ptr %6, align 8
  %65 = load i32, ptr %7, align 4
  %66 = sext i32 %65 to i64
  %67 = getelementptr inbounds i32, ptr %64, i64 %66
  %68 = load i32, ptr %67, align 4
  %69 = icmp eq i32 %68, 1
  br i1 %69, label %70, label %73

70:                                               ; preds = %63
  %71 = load i32, ptr %9, align 4
  %72 = add nsw i32 %71, 1
  store i32 %72, ptr %9, align 4
  br label %73

73:                                               ; preds = %70, %63
  br label %74

74:                                               ; preds = %73
  %75 = load i32, ptr %7, align 4
  %76 = add nsw i32 %75, 1
  store i32 %76, ptr %7, align 4
  br label %59, !llvm.loop !18

77:                                               ; preds = %59
  %78 = load ptr, ptr %6, align 8
  %79 = icmp ne ptr %78, null
  br i1 %79, label %80, label %82

80:                                               ; preds = %77
  %81 = load ptr, ptr %6, align 8
  call void @free(ptr noundef %81) #6
  store ptr null, ptr %6, align 8
  br label %83

82:                                               ; preds = %77
  br label %83

83:                                               ; preds = %82, %80
  %84 = load i32, ptr %9, align 4
  store i32 %84, ptr %3, align 4
  br label %85

85:                                               ; preds = %83, %33
  %86 = load i32, ptr %3, align 4
  ret i32 %86
}