; Function Attrs: nounwind uwtable
define i32 @Cudd_SupportSize(ptr noundef captures(none) %0, ptr noundef %1) local_unnamed_addr #0 {
  %3 = getelementptr inbounds nuw i8, ptr %0, i64 140
  %4 = load i32, ptr %3, align 4
  %5 = getelementptr inbounds nuw i8, ptr %0, i64 136
  %6 = load i32, ptr %5, align 8
  %. = tail call i32 @llvm.smax.i32(i32 %4, i32 %6)
  %7 = sext i32 %. to i64
  %8 = shl nsw i64 %7, 2
  %9 = tail call noalias ptr @malloc(i64 noundef %8) #22
  %10 = icmp eq ptr %9, null
  br i1 %10, label %17, label %.preheader

.preheader:                                       ; preds = %2
  %11 = icmp sgt i32 %., 0
  br i1 %11, label %.lr.ph.preheader, label %._crit_edge36.critedge

.lr.ph.preheader:                                 ; preds = %.preheader
  %12 = zext nneg i32 %. to i64
  %13 = shl nuw nsw i64 %12, 2
  tail call void @llvm.memset.p0.i64(ptr nonnull align 4 %9, i8 0, i64 %13, i1 false)
  %14 = ptrtoint ptr %1 to i64
  %15 = and i64 %14, -2
  %16 = inttoptr i64 %15 to ptr
  tail call fastcc void @ddSupportStep(ptr noundef %16, ptr noundef %9)
  tail call fastcc void @ddClearFlag(ptr noundef %16)
  %wide.trip.count = zext nneg i32 %. to i64
  br label %.lr.ph35

17:                                               ; preds = %2
  %18 = getelementptr inbounds nuw i8, ptr %0, i64 624
  store i32 1, ptr %18, align 8
  br label %26

.lr.ph35:                                         ; preds = %.lr.ph.preheader, %.lr.ph35
  %indvars.iv = phi i64 [ 0, %.lr.ph.preheader ], [ %indvars.iv.next, %.lr.ph35 ]
  %.033 = phi i32 [ 0, %.lr.ph.preheader ], [ %spec.select, %.lr.ph35 ]
  %19 = getelementptr inbounds nuw i32, ptr %9, i64 %indvars.iv
  %20 = load i32, ptr %19, align 4
  %21 = icmp eq i32 %20, 1
  %22 = zext i1 %21 to i32
  %spec.select = add nuw nsw i32 %.033, %22
  %indvars.iv.next = add nuw nsw i64 %indvars.iv, 1
  %exitcond.not = icmp eq i64 %indvars.iv.next, %wide.trip.count
  br i1 %exitcond.not, label %._crit_edge36, label %.lr.ph35, !llvm.loop !17

._crit_edge36.critedge:                           ; preds = %.preheader
  %23 = ptrtoint ptr %1 to i64
  %24 = and i64 %23, -2
  %25 = inttoptr i64 %24 to ptr
  tail call fastcc void @ddSupportStep(ptr noundef %25, ptr noundef %9)
  tail call fastcc void @ddClearFlag(ptr noundef %25)
  br label %._crit_edge36

._crit_edge36:                                    ; preds = %.lr.ph35, %._crit_edge36.critedge
  %.0.lcssa = phi i32 [ 0, %._crit_edge36.critedge ], [ %spec.select, %.lr.ph35 ]
  tail call void @free(ptr noundef nonnull %9) #23
  br label %26

26:                                               ; preds = %._crit_edge36, %17
  %.024 = phi i32 [ -1, %17 ], [ %.0.lcssa, %._crit_edge36 ]
  ret i32 %.024
}